; ModuleID = '23/1182.c'
source_filename = "23/1182.c"
target datalayout = "e-m:e-p270:32:32-p271:32:32-p272:64:64-i64:64-f80:128-n8:16:32:64-S128"
target triple = "x86_64-pc-linux-gnu"

@.str = private unnamed_addr constant [3 x i8] c"%s\00", align 1
@.str.1 = private unnamed_addr constant [5 x i8] c"%c%s\00", align 1
@.str.2 = private unnamed_addr constant [2 x i8] c"\0A\00", align 1

; Function Attrs: noinline nounwind uwtable
define dso_local void @main() #0 {
  %1 = alloca [100 x i8], align 16
  %2 = alloca [10 x [10 x i8]], align 16
  %3 = alloca i8, align 1
  %4 = alloca i32, align 4
  %5 = alloca i32, align 4
  %6 = alloca i32, align 4
  %7 = alloca i32, align 4
  store i8 32, i8* %3, align 1
  store i32 0, i32* %5, align 4
  store i32 0, i32* %7, align 4
  %8 = getelementptr inbounds [100 x i8], [100 x i8]* %1, i64 0, i64 0
  %9 = call i32 (i8*, ...) bitcast (i32 (...)* @gets to i32 (i8*, ...)*)(i8* %8)
  %10 = getelementptr inbounds [100 x i8], [100 x i8]* %1, i64 0, i64 0
  %11 = call i64 @strlen(i8* %10) #3
  %12 = trunc i64 %11 to i32
  store i32 %12, i32* %6, align 4
  store i32 0, i32* %4, align 4
  br label %13

13:                                               ; preds = %46, %0
  %14 = load i32, i32* %4, align 4
  %15 = load i32, i32* %6, align 4
  %16 = icmp slt i32 %14, %15
  br i1 %16, label %17, label %49

17:                                               ; preds = %13
  %18 = load i32, i32* %4, align 4
  %19 = sext i32 %18 to i64
  %20 = getelementptr inbounds [100 x i8], [100 x i8]* %1, i64 0, i64 %19
  %21 = load i8, i8* %20, align 1
  %22 = sext i8 %21 to i32
  %23 = icmp ne i32 %22, 32
  br i1 %23, label %24, label %36

24:                                               ; preds = %17
  %25 = load i32, i32* %4, align 4
  %26 = sext i32 %25 to i64
  %27 = getelementptr inbounds [100 x i8], [100 x i8]* %1, i64 0, i64 %26
  %28 = load i8, i8* %27, align 1
  %29 = load i32, i32* %5, align 4
  %30 = sext i32 %29 to i64
  %31 = getelementptr inbounds [10 x [10 x i8]], [10 x [10 x i8]]* %2, i64 0, i64 %30
  %32 = load i32, i32* %7, align 4
  %33 = add nsw i32 %32, 1
  store i32 %33, i32* %7, align 4
  %34 = sext i32 %32 to i64
  %35 = getelementptr inbounds [10 x i8], [10 x i8]* %31, i64 0, i64 %34
  store i8 %28, i8* %35, align 1
  br label %45

36:                                               ; preds = %17
  %37 = load i32, i32* %5, align 4
  %38 = sext i32 %37 to i64
  %39 = getelementptr inbounds [10 x [10 x i8]], [10 x [10 x i8]]* %2, i64 0, i64 %38
  %40 = load i32, i32* %7, align 4
  %41 = sext i32 %40 to i64
  %42 = getelementptr inbounds [10 x i8], [10 x i8]* %39, i64 0, i64 %41
  store i8 0, i8* %42, align 1
  %43 = load i32, i32* %5, align 4
  %44 = add nsw i32 %43, 1
  store i32 %44, i32* %5, align 4
  store i32 0, i32* %7, align 4
  br label %45

45:                                               ; preds = %36, %24
  br label %46

46:                                               ; preds = %45
  %47 = load i32, i32* %4, align 4
  %48 = add nsw i32 %47, 1
  store i32 %48, i32* %4, align 4
  br label %13

49:                                               ; preds = %13
  %50 = load i32, i32* %5, align 4
  %51 = sext i32 %50 to i64
  %52 = getelementptr inbounds [10 x [10 x i8]], [10 x [10 x i8]]* %2, i64 0, i64 %51
  %53 = load i32, i32* %7, align 4
  %54 = sext i32 %53 to i64
  %55 = getelementptr inbounds [10 x i8], [10 x i8]* %52, i64 0, i64 %54
  store i8 0, i8* %55, align 1
  %56 = load i32, i32* %5, align 4
  %57 = sext i32 %56 to i64
  %58 = getelementptr inbounds [10 x [10 x i8]], [10 x [10 x i8]]* %2, i64 0, i64 %57
  %59 = getelementptr inbounds [10 x i8], [10 x i8]* %58, i64 0, i64 0
  %60 = call i32 (i8*, ...) @printf(i8* getelementptr inbounds ([3 x i8], [3 x i8]* @.str, i64 0, i64 0), i8* %59)
  %61 = load i32, i32* %5, align 4
  %62 = sub nsw i32 %61, 1
  store i32 %62, i32* %4, align 4
  br label %63

63:                                               ; preds = %74, %49
  %64 = load i32, i32* %4, align 4
  %65 = icmp sge i32 %64, 0
  br i1 %65, label %66, label %77

66:                                               ; preds = %63
  %67 = load i8, i8* %3, align 1
  %68 = sext i8 %67 to i32
  %69 = load i32, i32* %4, align 4
  %70 = sext i32 %69 to i64
  %71 = getelementptr inbounds [10 x [10 x i8]], [10 x [10 x i8]]* %2, i64 0, i64 %70
  %72 = getelementptr inbounds [10 x i8], [10 x i8]* %71, i64 0, i64 0
  %73 = call i32 (i8*, ...) @printf(i8* getelementptr inbounds ([5 x i8], [5 x i8]* @.str.1, i64 0, i64 0), i32 %68, i8* %72)
  br label %74

74:                                               ; preds = %66
  %75 = load i32, i32* %4, align 4
  %76 = add nsw i32 %75, -1
  store i32 %76, i32* %4, align 4
  br label %63

77:                                               ; preds = %63
  %78 = call i32 (i8*, ...) @printf(i8* getelementptr inbounds ([2 x i8], [2 x i8]* @.str.2, i64 0, i64 0))
  ret void
}

declare dso_local i32 @gets(...) #1

; Function Attrs: nounwind readonly
declare dso_local i64 @strlen(i8*) #2

declare dso_local i32 @printf(i8*, ...) #1


!llvm.module.flags = !{!0}
!llvm.ident = !{!1}

!0 = !{i32 1, !"wchar_size", i32 4}
!1 = !{!"clang version 10.0.0-4ubuntu1 "}
