; ModuleID = 'source-C-CXX/22/1182.c'
source_filename = "source-C-CXX/22/1182.c"
target datalayout = "e-m:e-p270:32:32-p271:32:32-p272:64:64-i64:64-f80:128-n8:16:32:64-S128"
target triple = "x86_64-pc-linux-gnu"

@.str = private unnamed_addr constant [3 x i8] c"%s\00", align 1
@.str.1 = private unnamed_addr constant [5 x i8] c"%c%s\00", align 1

; Function Attrs: nounwind sspstrong uwtable
define dso_local void @main() local_unnamed_addr #0 {
  %1 = alloca [100 x i8], align 16
  %2 = alloca [10 x [10 x i8]], align 16
  %3 = getelementptr inbounds [100 x i8], [100 x i8]* %1, i64 0, i64 0
  call void @llvm.lifetime.start.p0i8(i64 100, i8* nonnull %3) #6
  %4 = getelementptr inbounds [10 x [10 x i8]], [10 x [10 x i8]]* %2, i64 0, i64 0, i64 0
  call void @llvm.lifetime.start.p0i8(i64 100, i8* nonnull %4) #6
  %5 = call i32 (i8*, ...) bitcast (i32 (...)* @gets to i32 (i8*, ...)*)(i8* nonnull %3) #6
  %6 = call i64 @strlen(i8* noundef nonnull %3) #7
  %7 = trunc i64 %6 to i32
  %8 = icmp sgt i32 %7, 0
  br i1 %8, label %9, label %32

9:                                                ; preds = %0
  %10 = and i64 %6, 4294967295
  br label %11

11:                                               ; preds = %9, %27
  %12 = phi i64 [ 0, %9 ], [ %30, %27 ]
  %13 = phi i32 [ 0, %9 ], [ %29, %27 ]
  %14 = phi i32 [ 0, %9 ], [ %28, %27 ]
  %15 = getelementptr inbounds [100 x i8], [100 x i8]* %1, i64 0, i64 %12
  %16 = load i8, i8* %15, align 1, !tbaa !5
  %17 = icmp eq i8 %16, 32
  %18 = sext i32 %14 to i64
  br i1 %17, label %23, label %19

19:                                               ; preds = %11
  %20 = add nsw i32 %13, 1
  %21 = sext i32 %13 to i64
  %22 = getelementptr inbounds [10 x [10 x i8]], [10 x [10 x i8]]* %2, i64 0, i64 %18, i64 %21
  store i8 %16, i8* %22, align 1, !tbaa !5
  br label %27

23:                                               ; preds = %11
  %24 = sext i32 %13 to i64
  %25 = getelementptr inbounds [10 x [10 x i8]], [10 x [10 x i8]]* %2, i64 0, i64 %18, i64 %24
  store i8 0, i8* %25, align 1, !tbaa !5
  %26 = add nsw i32 %14, 1
  br label %27

27:                                               ; preds = %19, %23
  %28 = phi i32 [ %14, %19 ], [ %26, %23 ]
  %29 = phi i32 [ %20, %19 ], [ 0, %23 ]
  %30 = add nuw nsw i64 %12, 1
  %31 = icmp eq i64 %30, %10
  br i1 %31, label %32, label %11, !llvm.loop !8

32:                                               ; preds = %27, %0
  %33 = phi i32 [ 0, %0 ], [ %28, %27 ]
  %34 = phi i32 [ 0, %0 ], [ %29, %27 ]
  %35 = sext i32 %33 to i64
  %36 = sext i32 %34 to i64
  %37 = getelementptr inbounds [10 x [10 x i8]], [10 x [10 x i8]]* %2, i64 0, i64 %35, i64 %36
  store i8 0, i8* %37, align 1, !tbaa !5
  %38 = getelementptr inbounds [10 x [10 x i8]], [10 x [10 x i8]]* %2, i64 0, i64 %35, i64 0
  %39 = call i32 (i8*, ...) @printf(i8* nonnull dereferenceable(1) getelementptr inbounds ([3 x i8], [3 x i8]* @.str, i64 0, i64 0), i8* nonnull %38)
  %40 = icmp sgt i32 %33, 0
  br i1 %40, label %41, label %52

41:                                               ; preds = %32
  %42 = zext i32 %33 to i64
  br label %43

43:                                               ; preds = %41, %43
  %44 = phi i64 [ %42, %41 ], [ %51, %43 ]
  %45 = phi i32 [ %33, %41 ], [ %46, %43 ]
  %46 = add nsw i32 %45, -1
  %47 = zext i32 %46 to i64
  %48 = getelementptr inbounds [10 x [10 x i8]], [10 x [10 x i8]]* %2, i64 0, i64 %47, i64 0
  %49 = call i32 (i8*, ...) @printf(i8* nonnull dereferenceable(1) getelementptr inbounds ([5 x i8], [5 x i8]* @.str.1, i64 0, i64 0), i32 32, i8* nonnull %48)
  %50 = icmp sgt i64 %44, 1
  %51 = add nsw i64 %44, -1
  br i1 %50, label %43, label %52, !llvm.loop !10

52:                                               ; preds = %43, %32
  %53 = call i32 @putchar(i32 10)
  call void @llvm.lifetime.end.p0i8(i64 100, i8* nonnull %4) #6
  call void @llvm.lifetime.end.p0i8(i64 100, i8* nonnull %3) #6
  ret void
}

; Function Attrs: argmemonly mustprogress nofree nosync nounwind willreturn
declare void @llvm.lifetime.start.p0i8(i64 immarg, i8* nocapture) #1

declare i32 @gets(...) local_unnamed_addr #2

; Function Attrs: argmemonly mustprogress nofree nounwind readonly willreturn
declare i64 @strlen(i8* nocapture) local_unnamed_addr #3

; Function Attrs: nofree nounwind
declare noundef i32 @printf(i8* nocapture noundef readonly, ...) local_unnamed_addr #4

; Function Attrs: argmemonly mustprogress nofree nosync nounwind willreturn
declare void @llvm.lifetime.end.p0i8(i64 immarg, i8* nocapture) #1

; Function Attrs: nofree nounwind
declare noundef i32 @putchar(i32 noundef) local_unnamed_addr #5


!llvm.module.flags = !{!0, !1, !2, !3}
!llvm.ident = !{!4}

!0 = !{i32 1, !"wchar_size", i32 4}
!1 = !{i32 7, !"PIC Level", i32 2}
!2 = !{i32 7, !"PIE Level", i32 2}
!3 = !{i32 7, !"uwtable", i32 1}
!4 = !{!"clang version 13.0.0"}
!5 = !{!6, !6, i64 0}
!6 = !{!"omnipotent char", !7, i64 0}
!7 = !{!"Simple C/C++ TBAA"}
!8 = distinct !{!8, !9}
!9 = !{!"llvm.loop.mustprogress"}
!10 = distinct !{!10, !9}
